target datalayout = "e-m:e-p270:32:32-p271:32:32-p272:64:64-i64:64-i128:128-f80:128-n8:16:32:64-S128"
target triple = "x86_64-pc-linux-gnu"

%struct.AVFilterContext = type { ptr, ptr, ptr, ptr, ptr, i32, ptr, ptr, i32, ptr, ptr, i32, i32, ptr, ptr, ptr, ptr, i32, ptr, i32, i32 }
%struct.ELBGFilterContext = type { ptr, ptr, %struct.AVLFG, i64, i32, ptr, i32, ptr, ptr, i32, ptr, [4 x i8], i32, i32 }
%struct.AVLFG = type { [64 x i32], i32 }
%struct.AVFilterFormatsConfig = type { ptr, ptr, ptr, ptr, ptr }

@query_formats.pix_fmts = internal constant [7 x i32] [i32 25, i32 26, i32 27, i32 28, i32 2, i32 3, i32 -1], align 16
@query_formats.pal8_fmt = internal constant [2 x i32] [i32 11, i32 -1], align 4

; Function Attrs: nounwind uwtable
define internal i32 @query_formats(ptr noundef %0, ptr noundef %1, ptr noundef %2) #1 {
  %4 = alloca i32, align 4
  %5 = alloca ptr, align 8
  %6 = alloca ptr, align 8
  %7 = alloca ptr, align 8
  %8 = alloca ptr, align 8
  %9 = alloca i32, align 4
  %10 = alloca i32, align 4
  store ptr %0, ptr %5, align 8, !tbaa !4
  store ptr %1, ptr %6, align 8, !tbaa !33
  store ptr %2, ptr %7, align 8, !tbaa !33
  call void @llvm.lifetime.start.p0(i64 8, ptr %8) #4
  %11 = load ptr, ptr %5, align 8, !tbaa !4
  %12 = getelementptr inbounds nuw %struct.AVFilterContext, ptr %11, i32 0, i32 9
  %13 = load ptr, ptr %12, align 8, !tbaa !9
  store ptr %13, ptr %8, align 8, !tbaa !22
  call void @llvm.lifetime.start.p0(i64 4, ptr %9) #4
  %14 = load ptr, ptr %8, align 8, !tbaa !22
  %15 = getelementptr inbounds nuw %struct.ELBGFilterContext, ptr %14, i32 0, i32 13
  %16 = load i32, ptr %15, align 8, !tbaa !24
  %17 = icmp ne i32 %16, 0
  br i1 %17, label %23, label %18

18:                                               ; preds = %3
  %19 = load ptr, ptr %5, align 8, !tbaa !4
  %20 = load ptr, ptr %6, align 8, !tbaa !33
  %21 = load ptr, ptr %7, align 8, !tbaa !33
  %22 = call i32 @ff_set_common_formats_from_list2(ptr noundef %19, ptr noundef %20, ptr noundef %21, ptr noundef @query_formats.pix_fmts)
  store i32 %22, ptr %4, align 4
  store i32 1, ptr %10, align 4
  br label %43

23:                                               ; preds = %3
  %24 = call ptr @ff_make_format_list(ptr noundef @query_formats.pix_fmts)
  %25 = load ptr, ptr %6, align 8, !tbaa !33
  %26 = getelementptr inbounds ptr, ptr %25, i64 0
  %27 = load ptr, ptr %26, align 8, !tbaa !35
  %28 = getelementptr inbounds nuw %struct.AVFilterFormatsConfig, ptr %27, i32 0, i32 0
  %29 = call i32 @ff_formats_ref(ptr noundef %24, ptr noundef %28)
  store i32 %29, ptr %9, align 4, !tbaa !37
  %30 = icmp slt i32 %29, 0
  br i1 %30, label %39, label %31

31:                                               ; preds = %23
  %32 = call ptr @ff_make_format_list(ptr noundef @query_formats.pal8_fmt)
  %33 = load ptr, ptr %7, align 8, !tbaa !33
  %34 = getelementptr inbounds ptr, ptr %33, i64 0
  %35 = load ptr, ptr %34, align 8, !tbaa !35
  %36 = getelementptr inbounds nuw %struct.AVFilterFormatsConfig, ptr %35, i32 0, i32 0
  %37 = call i32 @ff_formats_ref(ptr noundef %32, ptr noundef %36)
  store i32 %37, ptr %9, align 4, !tbaa !37
  %38 = icmp slt i32 %37, 0
  br i1 %38, label %39, label %41

39:                                               ; preds = %31, %23
  %40 = load i32, ptr %9, align 4, !tbaa !37
  store i32 %40, ptr %4, align 4
  store i32 1, ptr %10, align 4
  br label %43

41:                                               ; preds = %31
  br label %42

42:                                               ; preds = %41
  store i32 0, ptr %4, align 4
  store i32 1, ptr %10, align 4
  br label %43

43:                                               ; preds = %42, %39, %18
  call void @llvm.lifetime.end.p0(i64 4, ptr %9) #4
  call void @llvm.lifetime.end.p0(i64 8, ptr %8) #4
  %44 = load i32, ptr %4, align 4
  ret i32 %44
}