; Function Attrs: nounwind uwtable
define internal i32 @query_formats(ptr noundef %0, ptr noundef %1, ptr noundef %2) #1 {
  %4 = getelementptr inbounds nuw i8, ptr %0, i64 72
  %5 = load ptr, ptr %4, align 8, !tbaa !4
  %6 = getelementptr inbounds nuw i8, ptr %5, i64 352
  %7 = load i32, ptr %6, align 8, !tbaa !20
  %.not = icmp eq i32 %7, 0
  br i1 %.not, label %8, label %10

8:                                                ; preds = %3
  %9 = tail call i32 @ff_set_common_formats_from_list2(ptr noundef nonnull %0, ptr noundef %1, ptr noundef %2, ptr noundef nonnull @query_formats.pix_fmts) #4
  br label %19

10:                                               ; preds = %3
  %11 = tail call ptr @ff_make_format_list(ptr noundef nonnull @query_formats.pix_fmts) #4
  %12 = load ptr, ptr %1, align 8, !tbaa !29
  %13 = tail call i32 @ff_formats_ref(ptr noundef %11, ptr noundef %12) #4
  %14 = icmp slt i32 %13, 0
  br i1 %14, label %19, label %15

15:                                               ; preds = %10
  %16 = tail call ptr @ff_make_format_list(ptr noundef nonnull @query_formats.pal8_fmt) #4
  %17 = load ptr, ptr %2, align 8, !tbaa !29
  %18 = tail call i32 @ff_formats_ref(ptr noundef %16, ptr noundef %17) #4
  %spec.select = tail call i32 @llvm.smin.i32(i32 %18, i32 0)
  br label %19

19:                                               ; preds = %15, %10, %8
  %.08 = phi i32 [ %9, %8 ], [ %13, %10 ], [ %spec.select, %15 ]
  ret i32 %.08
}